target datalayout = "e-m:e-p270:32:32-p271:32:32-p272:64:64-i64:64-i128:128-f80:128-n8:16:32:64-S128"
target triple = "x86_64-pc-linux-gnu"

%class.markWord = type { i64 }
%class.BasicLock = type { %class.markWord }
%class.Handle = type { ptr }
%class.ObjectLocker = type { ptr, %class.Handle, %class.BasicLock }

; Function Attrs: mustprogress nounwind uwtable
define linkonce_odr hidden noundef ptr @_ZNK6Handle3objEv(ptr noundef nonnull align 8 dereferenceable(8) %0) #1 comdat align 2 {
  %2 = alloca ptr, align 8
  store ptr %0, ptr %2, align 8
  %3 = load ptr, ptr %2, align 8
  %4 = getelementptr inbounds %class.Handle, ptr %3, i32 0, i32 0
  %5 = load ptr, ptr %4, align 8
  %6 = icmp eq ptr %5, null
  br i1 %6, label %7, label %8

7:                                                ; preds = %1
  br label %12

8:                                                ; preds = %1
  %9 = getelementptr inbounds %class.Handle, ptr %3, i32 0, i32 0
  %10 = load ptr, ptr %9, align 8
  %11 = load ptr, ptr %10, align 8
  br label %12

12:                                               ; preds = %8, %7
  %13 = phi ptr [ null, %7 ], [ %11, %8 ]
  ret ptr %13
}

; Function Attrs: mustprogress nounwind uwtable
define linkonce_odr hidden noundef ptr @_ZNK6HandleclEv(ptr noundef nonnull align 8 dereferenceable(8) %0) #1 comdat align 2 {
  %2 = alloca ptr, align 8
  store ptr %0, ptr %2, align 8
  %3 = load ptr, ptr %2, align 8
  %4 = call noundef ptr @_ZNK6Handle3objEv(ptr noundef nonnull align 8 dereferenceable(8) %3)
  ret ptr %4
}

; Function Attrs: mustprogress nounwind uwtable
define linkonce_odr hidden void @_ZN10JavaThread31check_for_valid_safepoint_stateEv(ptr noundef nonnull align 8 dereferenceable(1800) %0) #1 comdat align 2 {
  %2 = alloca ptr, align 8
  store ptr %0, ptr %2, align 8
  ret void
}

; Function Attrs: mustprogress nounwind uwtable
define linkonce_odr hidden void @_ZN6HandleC2Ev(ptr noundef nonnull align 8 dereferenceable(8) %0) unnamed_addr #1 comdat align 2 {
  %2 = alloca ptr, align 8
  store ptr %0, ptr %2, align 8
  %3 = load ptr, ptr %2, align 8
  %4 = getelementptr inbounds %class.Handle, ptr %3, i32 0, i32 0
  store ptr null, ptr %4, align 8
  ret void
}

; Function Attrs: mustprogress nounwind uwtable
define hidden void @_ZN12ObjectLockerC2E6HandleP10JavaThread(ptr noundef nonnull align 8 dereferenceable(24) %0, ptr %1, ptr noundef %2) unnamed_addr #1 align 2 {
  %4 = alloca %class.Handle, align 8
  %5 = alloca ptr, align 8
  %6 = alloca ptr, align 8
  %7 = alloca %class.Handle, align 8
  %8 = getelementptr inbounds %class.Handle, ptr %4, i32 0, i32 0
  store ptr %1, ptr %8, align 8
  store ptr %0, ptr %5, align 8
  store ptr %2, ptr %6, align 8
  %9 = load ptr, ptr %5, align 8
  %10 = getelementptr inbounds %class.ObjectLocker, ptr %9, i32 0, i32 1
  call void @_ZN6HandleC2Ev(ptr noundef nonnull align 8 dereferenceable(8) %10)
  %11 = load ptr, ptr %6, align 8
  %12 = getelementptr inbounds %class.ObjectLocker, ptr %9, i32 0, i32 0
  store ptr %11, ptr %12, align 8
  %13 = getelementptr inbounds %class.ObjectLocker, ptr %9, i32 0, i32 0
  %14 = load ptr, ptr %13, align 8
  call void @_ZN10JavaThread31check_for_valid_safepoint_stateEv(ptr noundef nonnull align 8 dereferenceable(1800) %14)
  %15 = getelementptr inbounds %class.ObjectLocker, ptr %9, i32 0, i32 1
  call void @llvm.memcpy.p0.p0.i64(ptr align 8 %15, ptr align 8 %4, i64 8, i1 false)
  %16 = getelementptr inbounds %class.ObjectLocker, ptr %9, i32 0, i32 1
  %17 = call noundef ptr @_ZNK6HandleclEv(ptr noundef nonnull align 8 dereferenceable(8) %16)
  %18 = icmp ne ptr %17, null
  br i1 %18, label %19, label %26

19:                                               ; preds = %3
  %20 = getelementptr inbounds %class.ObjectLocker, ptr %9, i32 0, i32 1
  call void @llvm.memcpy.p0.p0.i64(ptr align 8 %7, ptr align 8 %20, i64 8, i1 false)
  %21 = getelementptr inbounds %class.ObjectLocker, ptr %9, i32 0, i32 2
  %22 = getelementptr inbounds %class.ObjectLocker, ptr %9, i32 0, i32 0
  %23 = load ptr, ptr %22, align 8
  %24 = getelementptr inbounds %class.Handle, ptr %7, i32 0, i32 0
  %25 = load ptr, ptr %24, align 8
  call void @_ZN18ObjectSynchronizer5enterE6HandleP9BasicLockP10JavaThread(ptr %25, ptr noundef %21, ptr noundef %23)
  br label %26

26:                                               ; preds = %19, %3
  ret void
}