; Function Attrs: mustprogress nounwind uwtable
define hidden void @_ZN12ObjectLockerC2E6HandleP10JavaThread(ptr noundef nonnull align 8 dereferenceable(24) %0, ptr %1, ptr noundef %2) unnamed_addr #0 align 2 {
  %4 = getelementptr inbounds i8, ptr %0, i64 8
  store ptr %2, ptr %0, align 8
  store ptr %1, ptr %4, align 8
  %5 = icmp eq ptr %1, null
  br i1 %5, label %_ZNK6HandleclEv.exit.thread, label %_ZNK6HandleclEv.exit

_ZNK6HandleclEv.exit:                             ; preds = %3
  %6 = load ptr, ptr %1, align 8
  %.not = icmp eq ptr %6, null
  br i1 %.not, label %_ZNK6HandleclEv.exit.thread, label %7

7:                                                ; preds = %_ZNK6HandleclEv.exit
  %8 = getelementptr inbounds i8, ptr %0, i64 16
  tail call void @_ZN18ObjectSynchronizer5enterE6HandleP9BasicLockP10JavaThread(ptr nonnull %1, ptr noundef nonnull %8, ptr noundef %2)
  br label %_ZNK6HandleclEv.exit.thread

_ZNK6HandleclEv.exit.thread:                      ; preds = %3, %7, %_ZNK6HandleclEv.exit
  ret void
}